target datalayout = "e-m:e-p270:32:32-p271:32:32-p272:64:64-i64:64-i128:128-f80:128-n8:16:32:64-S128"
target triple = "x86_64-pc-linux-gnu"

%"class.llvm::ReachingDefAnalysis" = type <{ %"class.llvm::MachineFunctionPass", ptr, ptr, %"class.llvm::SmallVector.29", i32, [4 x i8], %"class.std::vector.34", %"class.llvm::SmallVector.39", i32, [4 x i8], %"class.llvm::DenseMap.44", %"class.llvm::SmallVector.47", i32, [4 x i8] }>
%"class.llvm::MachineFunctionPass" = type { %"class.llvm::FunctionPass.base", %"class.llvm::MachineFunctionProperties", %"class.llvm::MachineFunctionProperties", %"class.llvm::MachineFunctionProperties" }
%"class.llvm::FunctionPass.base" = type { %"class.llvm::Pass.base" }
%"class.llvm::Pass.base" = type <{ ptr, ptr, ptr, i32 }>
%"class.llvm::MachineFunctionProperties" = type { %"class.std::bitset" }
%"class.std::bitset" = type { %"struct.std::_Base_bitset" }
%"struct.std::_Base_bitset" = type { i64 }
%"class.llvm::SmallVector.29" = type { %"class.llvm::SmallVectorImpl.30", %"struct.llvm::SmallVectorStorage.33" }
%"class.llvm::SmallVectorImpl.30" = type { %"class.llvm::SmallVectorTemplateBase.31" }
%"class.llvm::SmallVectorTemplateBase.31" = type { %"class.llvm::SmallVectorTemplateCommon.32" }
%"class.llvm::SmallVectorTemplateCommon.32" = type { %"class.llvm::SmallVectorBase" }
%"class.llvm::SmallVectorBase" = type { ptr, i32, i32 }
%"struct.llvm::SmallVectorStorage.33" = type { [64 x i8] }
%"class.std::vector.34" = type { %"struct.std::_Vector_base.35" }
%"struct.std::_Vector_base.35" = type { %"struct.std::_Vector_base<int, std::allocator<int>>::_Vector_impl" }
%"struct.std::_Vector_base<int, std::allocator<int>>::_Vector_impl" = type { %"struct.std::_Vector_base<int, std::allocator<int>>::_Vector_impl_data" }
%"struct.std::_Vector_base<int, std::allocator<int>>::_Vector_impl_data" = type { ptr, ptr, ptr }
%"class.llvm::SmallVector.39" = type { %"class.llvm::SmallVectorImpl.40", %"struct.llvm::SmallVectorStorage.43" }
%"class.llvm::SmallVectorImpl.40" = type { %"class.llvm::SmallVectorTemplateBase.41" }
%"class.llvm::SmallVectorTemplateBase.41" = type { %"class.llvm::SmallVectorTemplateCommon.42" }
%"class.llvm::SmallVectorTemplateCommon.42" = type { %"class.llvm::SmallVectorBase" }
%"struct.llvm::SmallVectorStorage.43" = type { [96 x i8] }
%"class.llvm::DenseMap.44" = type <{ ptr, i32, i32, i32, [4 x i8] }>
%"class.llvm::SmallVector.47" = type { %"class.llvm::SmallVectorImpl.48", %"struct.llvm::SmallVectorStorage.51" }
%"class.llvm::SmallVectorImpl.48" = type { %"class.llvm::SmallVectorTemplateBase.49" }
%"class.llvm::SmallVectorTemplateBase.49" = type { %"class.llvm::SmallVectorTemplateCommon.50" }
%"class.llvm::SmallVectorTemplateCommon.50" = type { %"class.llvm::SmallVectorBase" }
%"struct.llvm::SmallVectorStorage.51" = type { [96 x i8] }
%"class.llvm::ilist_node_impl" = type { %"class.llvm::ilist_node_base" }
%"class.llvm::ilist_node_base" = type { %"class.llvm::ilist_detail::node_base_prevnext" }
%"class.llvm::ilist_detail::node_base_prevnext" = type { ptr, ptr }
%"struct.llvm::Align" = type { i8 }
%"struct.llvm::LoopTraversal::TraversedMBBInfo" = type <{ ptr, i8, i8, [6 x i8] }>
%"class.llvm::MachineFunction" = type <{ ptr, ptr, ptr, ptr, ptr, ptr, ptr, ptr, ptr, ptr, ptr, ptr, %"class.std::vector.82", i32, [4 x i8], %"class.llvm::BumpPtrAllocatorImpl", %"class.llvm::Recycler", %"class.llvm::ArrayRecycler", %"class.llvm::Recycler.103", %"class.llvm::iplist.104", i32, %"struct.llvm::Align", i8, i8, i8, %"class.llvm::MachineFunctionProperties", %"class.std::unique_ptr", %"class.std::vector.113", %"class.std::vector.118", %"class.std::vector.118", %"class.std::vector.123", %"class.llvm::DenseMap.128", %"class.llvm::DenseMap.131", %"class.llvm::DenseMap.134", %"class.std::vector.137", i8, i8, i8, i8, i8, i8, [2 x i8], i32, i32, %"class.std::vector.142", %"class.std::vector.147", %"class.std::vector.147", i32, [4 x i8], ptr, ptr, %"class.llvm::DenseMap.152", %"class.llvm::SmallVector.155", i32, [4 x i8], %"class.llvm::SmallVector.160", %"class.llvm::DenseMap.165", i8, [7 x i8] }>
%"class.std::vector.82" = type { %"struct.std::_Vector_base.83" }
%"struct.std::_Vector_base.83" = type { %"struct.std::_Vector_base<llvm::MachineBasicBlock *, std::allocator<llvm::MachineBasicBlock *>>::_Vector_impl" }
%"struct.std::_Vector_base<llvm::MachineBasicBlock *, std::allocator<llvm::MachineBasicBlock *>>::_Vector_impl" = type { %"struct.std::_Vector_base<llvm::MachineBasicBlock *, std::allocator<llvm::MachineBasicBlock *>>::_Vector_impl_data" }
%"struct.std::_Vector_base<llvm::MachineBasicBlock *, std::allocator<llvm::MachineBasicBlock *>>::_Vector_impl_data" = type { ptr, ptr, ptr }
%"class.llvm::BumpPtrAllocatorImpl" = type { ptr, ptr, %"class.llvm::SmallVector.88", %"class.llvm::SmallVector.93", i64, i64 }
%"class.llvm::SmallVector.88" = type { %"class.llvm::SmallVectorImpl.89", %"struct.llvm::SmallVectorStorage.92" }
%"class.llvm::SmallVectorImpl.89" = type { %"class.llvm::SmallVectorTemplateBase.90" }
%"class.llvm::SmallVectorTemplateBase.90" = type { %"class.llvm::SmallVectorTemplateCommon.91" }
%"class.llvm::SmallVectorTemplateCommon.91" = type { %"class.llvm::SmallVectorBase" }
%"struct.llvm::SmallVectorStorage.92" = type { [32 x i8] }
%"class.llvm::SmallVector.93" = type { %"class.llvm::SmallVectorImpl.94" }
%"class.llvm::SmallVectorImpl.94" = type { %"class.llvm::SmallVectorTemplateBase.95" }
%"class.llvm::SmallVectorTemplateBase.95" = type { %"class.llvm::SmallVectorTemplateCommon.96" }
%"class.llvm::SmallVectorTemplateCommon.96" = type { %"class.llvm::SmallVectorBase" }
%"class.llvm::Recycler" = type { ptr }
%"class.llvm::ArrayRecycler" = type { %"class.llvm::SmallVector.98" }
%"class.llvm::SmallVector.98" = type { %"class.llvm::SmallVectorImpl.99", %"struct.llvm::SmallVectorStorage.102" }
%"class.llvm::SmallVectorImpl.99" = type { %"class.llvm::SmallVectorTemplateBase.100" }
%"class.llvm::SmallVectorTemplateBase.100" = type { %"class.llvm::SmallVectorTemplateCommon.101" }
%"class.llvm::SmallVectorTemplateCommon.101" = type { %"class.llvm::SmallVectorBase" }
%"struct.llvm::SmallVectorStorage.102" = type { [64 x i8] }
%"class.llvm::Recycler.103" = type { ptr }
%"class.llvm::iplist.104" = type { %"class.llvm::iplist_impl.105" }
%"class.llvm::iplist_impl.105" = type { %"class.llvm::simple_ilist.107" }
%"class.llvm::simple_ilist.107" = type { %"class.llvm::ilist_sentinel.110" }
%"class.llvm::ilist_sentinel.110" = type { %"class.llvm::ilist_node_impl" }
%"class.std::unique_ptr" = type { %"struct.std::__uniq_ptr_data" }
%"struct.std::__uniq_ptr_data" = type { %"class.std::__uniq_ptr_impl" }
%"class.std::__uniq_ptr_impl" = type { %"class.std::tuple" }
%"class.std::tuple" = type { %"struct.std::_Tuple_impl" }
%"struct.std::_Tuple_impl" = type { %"struct.std::_Head_base.112" }
%"struct.std::_Head_base.112" = type { ptr }
%"class.std::vector.113" = type { %"struct.std::_Vector_base.114" }
%"struct.std::_Vector_base.114" = type { %"struct.std::_Vector_base<llvm::MCCFIInstruction, std::allocator<llvm::MCCFIInstruction>>::_Vector_impl" }
%"struct.std::_Vector_base<llvm::MCCFIInstruction, std::allocator<llvm::MCCFIInstruction>>::_Vector_impl" = type { %"struct.std::_Vector_base<llvm::MCCFIInstruction, std::allocator<llvm::MCCFIInstruction>>::_Vector_impl_data" }
%"struct.std::_Vector_base<llvm::MCCFIInstruction, std::allocator<llvm::MCCFIInstruction>>::_Vector_impl_data" = type { ptr, ptr, ptr }
%"class.std::vector.118" = type { %"struct.std::_Vector_base.119" }
%"struct.std::_Vector_base.119" = type { %"struct.std::_Vector_base<llvm::MCSymbol *, std::allocator<llvm::MCSymbol *>>::_Vector_impl" }
%"struct.std::_Vector_base<llvm::MCSymbol *, std::allocator<llvm::MCSymbol *>>::_Vector_impl" = type { %"struct.std::_Vector_base<llvm::MCSymbol *, std::allocator<llvm::MCSymbol *>>::_Vector_impl_data" }
%"struct.std::_Vector_base<llvm::MCSymbol *, std::allocator<llvm::MCSymbol *>>::_Vector_impl_data" = type { ptr, ptr, ptr }
%"class.std::vector.123" = type { %"struct.std::_Vector_base.124" }
%"struct.std::_Vector_base.124" = type { %"struct.std::_Vector_base<llvm::LandingPadInfo, std::allocator<llvm::LandingPadInfo>>::_Vector_impl" }
%"struct.std::_Vector_base<llvm::LandingPadInfo, std::allocator<llvm::LandingPadInfo>>::_Vector_impl" = type { %"struct.std::_Vector_base<llvm::LandingPadInfo, std::allocator<llvm::LandingPadInfo>>::_Vector_impl_data" }
%"struct.std::_Vector_base<llvm::LandingPadInfo, std::allocator<llvm::LandingPadInfo>>::_Vector_impl_data" = type { ptr, ptr, ptr }
%"class.llvm::DenseMap.128" = type <{ ptr, i32, i32, i32, [4 x i8] }>
%"class.llvm::DenseMap.131" = type <{ ptr, i32, i32, i32, [4 x i8] }>
%"class.llvm::DenseMap.134" = type <{ ptr, i32, i32, i32, [4 x i8] }>
%"class.std::vector.137" = type { %"struct.std::_Vector_base.138" }
%"struct.std::_Vector_base.138" = type { %"struct.std::_Vector_base<std::pair<llvm::MCSymbol *, llvm::MDNode *>, std::allocator<std::pair<llvm::MCSymbol *, llvm::MDNode *>>>::_Vector_impl" }
%"struct.std::_Vector_base<std::pair<llvm::MCSymbol *, llvm::MDNode *>, std::allocator<std::pair<llvm::MCSymbol *, llvm::MDNode *>>>::_Vector_impl" = type { %"struct.std::_Vector_base<std::pair<llvm::MCSymbol *, llvm::MDNode *>, std::allocator<std::pair<llvm::MCSymbol *, llvm::MDNode *>>>::_Vector_impl_data" }
%"struct.std::_Vector_base<std::pair<llvm::MCSymbol *, llvm::MDNode *>, std::allocator<std::pair<llvm::MCSymbol *, llvm::MDNode *>>>::_Vector_impl_data" = type { ptr, ptr, ptr }
%"class.std::vector.142" = type { %"struct.std::_Vector_base.143" }
%"struct.std::_Vector_base.143" = type { %"struct.std::_Vector_base<const llvm::GlobalValue *, std::allocator<const llvm::GlobalValue *>>::_Vector_impl" }
%"struct.std::_Vector_base<const llvm::GlobalValue *, std::allocator<const llvm::GlobalValue *>>::_Vector_impl" = type { %"struct.std::_Vector_base<const llvm::GlobalValue *, std::allocator<const llvm::GlobalValue *>>::_Vector_impl_data" }
%"struct.std::_Vector_base<const llvm::GlobalValue *, std::allocator<const llvm::GlobalValue *>>::_Vector_impl_data" = type { ptr, ptr, ptr }
%"class.std::vector.147" = type { %"struct.std::_Vector_base.148" }
%"struct.std::_Vector_base.148" = type { %"struct.std::_Vector_base<unsigned int, std::allocator<unsigned int>>::_Vector_impl" }
%"struct.std::_Vector_base<unsigned int, std::allocator<unsigned int>>::_Vector_impl" = type { %"struct.std::_Vector_base<unsigned int, std::allocator<unsigned int>>::_Vector_impl_data" }
%"struct.std::_Vector_base<unsigned int, std::allocator<unsigned int>>::_Vector_impl_data" = type { ptr, ptr, ptr }
%"class.llvm::DenseMap.152" = type <{ ptr, i32, i32, i32, [4 x i8] }>
%"class.llvm::SmallVector.155" = type { %"class.llvm::SmallVectorImpl.156", %"struct.llvm::SmallVectorStorage.159" }
%"class.llvm::SmallVectorImpl.156" = type { %"class.llvm::SmallVectorTemplateBase.157" }
%"class.llvm::SmallVectorTemplateBase.157" = type { %"class.llvm::SmallVectorTemplateCommon.158" }
%"class.llvm::SmallVectorTemplateCommon.158" = type { %"class.llvm::SmallVectorBase" }
%"struct.llvm::SmallVectorStorage.159" = type { [128 x i8] }
%"class.llvm::SmallVector.160" = type { %"class.llvm::SmallVectorImpl.161", %"struct.llvm::SmallVectorStorage.164" }
%"class.llvm::SmallVectorImpl.161" = type { %"class.llvm::SmallVectorTemplateBase.162" }
%"class.llvm::SmallVectorTemplateBase.162" = type { %"class.llvm::SmallVectorTemplateCommon.163" }
%"class.llvm::SmallVectorTemplateCommon.163" = type { %"class.llvm::SmallVectorBase" }
%"struct.llvm::SmallVectorStorage.164" = type { [160 x i8] }
%"class.llvm::DenseMap.165" = type <{ ptr, i32, i32, i32, [4 x i8] }>

; Function Attrs: mustprogress nounwind uwtable
define linkonce_odr hidden noundef ptr @_ZN4llvm25SmallVectorTemplateCommonINS_13LoopTraversal16TraversedMBBInfoEvE3endEv(ptr noundef nonnull align 8 dereferenceable(16) %0) #0 comdat align 2 {
  %2 = alloca ptr, align 8
  store ptr %0, ptr %2, align 8
  %3 = load ptr, ptr %2, align 8
  %4 = call noundef ptr @_ZN4llvm25SmallVectorTemplateCommonINS_13LoopTraversal16TraversedMBBInfoEvE5beginEv(ptr noundef nonnull align 8 dereferenceable(16) %3)
  %5 = call noundef i64 @_ZNK4llvm15SmallVectorBaseIjE4sizeEv(ptr noundef nonnull align 8 dereferenceable(16) %3)
  %6 = getelementptr inbounds %"struct.llvm::LoopTraversal::TraversedMBBInfo", ptr %4, i64 %5
  ret ptr %6
}

; Function Attrs: mustprogress nounwind uwtable
define linkonce_odr hidden noundef ptr @_ZN4llvm25SmallVectorTemplateCommonINS_13LoopTraversal16TraversedMBBInfoEvE5beginEv(ptr noundef nonnull align 8 dereferenceable(16) %0) #0 comdat align 2 {
  %2 = alloca ptr, align 8
  store ptr %0, ptr %2, align 8
  %3 = load ptr, ptr %2, align 8
  %4 = getelementptr inbounds nuw %"class.llvm::SmallVectorBase", ptr %3, i32 0, i32 0
  %5 = load ptr, ptr %4, align 8
  ret ptr %5
}

; Function Attrs: mustprogress nounwind uwtable
define dso_local void @_ZN4llvm19ReachingDefAnalysis8traverseEv(ptr noundef nonnull align 8 dereferenceable(444) %0) #0 align 2 {
  %2 = alloca ptr, align 8
  %3 = alloca ptr, align 8
  %4 = alloca ptr, align 8
  %5 = alloca ptr, align 8
  %6 = alloca %"struct.llvm::LoopTraversal::TraversedMBBInfo", align 8
  store ptr %0, ptr %2, align 8
  %7 = load ptr, ptr %2, align 8
  %8 = getelementptr inbounds nuw %"class.llvm::ReachingDefAnalysis", ptr %7, i32 0, i32 3
  store ptr %8, ptr %3, align 8
  %9 = load ptr, ptr %3, align 8
  %10 = call noundef ptr @_ZN4llvm25SmallVectorTemplateCommonINS_13LoopTraversal16TraversedMBBInfoEvE5beginEv(ptr noundef nonnull align 8 dereferenceable(16) %9)
  store ptr %10, ptr %4, align 8
  %11 = load ptr, ptr %3, align 8
  %12 = call noundef ptr @_ZN4llvm25SmallVectorTemplateCommonINS_13LoopTraversal16TraversedMBBInfoEvE3endEv(ptr noundef nonnull align 8 dereferenceable(16) %11)
  store ptr %12, ptr %5, align 8
  br label %13

13:                                               ; preds = %19, %1
  %14 = load ptr, ptr %4, align 8
  %15 = load ptr, ptr %5, align 8
  %16 = icmp ne ptr %14, %15
  br i1 %16, label %17, label %22

17:                                               ; preds = %13
  %18 = load ptr, ptr %4, align 8
  call void @llvm.memcpy.p0.p0.i64(ptr align 8 %6, ptr align 8 %18, i64 16, i1 false)
  call void @_ZN4llvm19ReachingDefAnalysis17processBasicBlockERKNS_13LoopTraversal16TraversedMBBInfoE(ptr noundef nonnull align 8 dereferenceable(444) %7, ptr noundef nonnull align 8 dereferenceable(10) %6)
  br label %19

19:                                               ; preds = %17
  %20 = load ptr, ptr %4, align 8
  %21 = getelementptr inbounds %"struct.llvm::LoopTraversal::TraversedMBBInfo", ptr %20, i32 1
  store ptr %21, ptr %4, align 8
  br label %13

22:                                               ; preds = %13
  ret void
}

; Function Attrs: mustprogress nounwind uwtable
define linkonce_odr hidden noundef nonnull align 8 dereferenceable(288) ptr @_ZNK4llvm15MachineFunction12getSubtargetEv(ptr noundef nonnull align 8 dereferenceable(1041) %0) #0 comdat align 2 {
  %2 = alloca ptr, align 8
  store ptr %0, ptr %2, align 8
  %3 = load ptr, ptr %2, align 8
  %4 = getelementptr inbounds nuw %"class.llvm::MachineFunction", ptr %3, i32 0, i32 2
  %5 = load ptr, ptr %4, align 8
  ret ptr %5
}

; Function Attrs: mustprogress nounwind uwtable
define dso_local noundef zeroext i1 @_ZN4llvm19ReachingDefAnalysis20runOnMachineFunctionERNS_15MachineFunctionE(ptr noundef nonnull align 8 dereferenceable(444) %0, ptr noundef nonnull align 8 dereferenceable(1041) %1) unnamed_addr #0 align 2 {
  %3 = alloca ptr, align 8
  %4 = alloca ptr, align 8
  store ptr %0, ptr %3, align 8
  store ptr %1, ptr %4, align 8
  %5 = load ptr, ptr %3, align 8
  %6 = load ptr, ptr %4, align 8
  %7 = getelementptr inbounds nuw %"class.llvm::ReachingDefAnalysis", ptr %5, i32 0, i32 1
  store ptr %6, ptr %7, align 8
  %8 = getelementptr inbounds nuw %"class.llvm::ReachingDefAnalysis", ptr %5, i32 0, i32 1
  %9 = load ptr, ptr %8, align 8
  %10 = call noundef nonnull align 8 dereferenceable(288) ptr @_ZNK4llvm15MachineFunction12getSubtargetEv(ptr noundef nonnull align 8 dereferenceable(1041) %9)
  %11 = load ptr, ptr %10, align 8
  %12 = getelementptr inbounds ptr, ptr %11, i64 25
  %13 = load ptr, ptr %12, align 8
  %14 = call noundef ptr %13(ptr noundef nonnull align 8 dereferenceable(288) %10)
  %15 = getelementptr inbounds nuw %"class.llvm::ReachingDefAnalysis", ptr %5, i32 0, i32 2
  store ptr %14, ptr %15, align 8
  br label %16

16:                                               ; preds = %2
  br label %17

17:                                               ; preds = %16
  call void @_ZN4llvm19ReachingDefAnalysis4initEv(ptr noundef nonnull align 8 dereferenceable(444) %5)
  call void @_ZN4llvm19ReachingDefAnalysis8traverseEv(ptr noundef nonnull align 8 dereferenceable(444) %5)
  ret i1 false
}