; Function Attrs: mustprogress nounwind uwtable
define dso_local noundef zeroext i1 @_ZN4llvm19ReachingDefAnalysis20runOnMachineFunctionERNS_15MachineFunctionE(ptr noundef nonnull align 8 dereferenceable(444) %0, ptr noundef nonnull align 8 dereferenceable(1041) %1) unnamed_addr #0 align 2 {
  %3 = alloca %"struct.llvm::LoopTraversal::TraversedMBBInfo", align 8
  %4 = getelementptr inbounds nuw i8, ptr %0, i64 56
  store ptr %1, ptr %4, align 8
  %5 = getelementptr inbounds nuw i8, ptr %1, i64 16
  %6 = load ptr, ptr %5, align 8
  %7 = load ptr, ptr %6, align 8
  %8 = getelementptr inbounds i8, ptr %7, i64 200
  %9 = load ptr, ptr %8, align 8
  %10 = tail call noundef ptr %9(ptr noundef nonnull align 8 dereferenceable(288) %6) #15
  %11 = getelementptr inbounds nuw i8, ptr %0, i64 64
  store ptr %10, ptr %11, align 8
  tail call void @_ZN4llvm19ReachingDefAnalysis4initEv(ptr noundef nonnull align 8 dereferenceable(444) %0)
  call void @llvm.lifetime.start.p0(i64 16, ptr nonnull %3)
  %12 = getelementptr inbounds nuw i8, ptr %0, i64 72
  %13 = load ptr, ptr %12, align 8
  %14 = tail call noundef i64 @_ZNK4llvm15SmallVectorBaseIjE4sizeEv(ptr noundef nonnull align 8 dereferenceable(16) %12) #15
  %15 = getelementptr inbounds %"struct.llvm::LoopTraversal::TraversedMBBInfo", ptr %13, i64 %14
  %.not7.i = icmp eq i64 %14, 0
  br i1 %.not7.i, label %_ZN4llvm19ReachingDefAnalysis8traverseEv.exit, label %.lr.ph.i

.lr.ph.i:                                         ; preds = %2, %.lr.ph.i
  %.08.i = phi ptr [ %16, %.lr.ph.i ], [ %13, %2 ]
  call void @llvm.memcpy.p0.p0.i64(ptr noundef nonnull align 8 dereferenceable(16) %3, ptr noundef nonnull align 8 dereferenceable(16) %.08.i, i64 16, i1 false)
  call void @_ZN4llvm19ReachingDefAnalysis17processBasicBlockERKNS_13LoopTraversal16TraversedMBBInfoE(ptr noundef nonnull align 8 dereferenceable(444) %0, ptr noundef nonnull align 8 dereferenceable(10) %3)
  %16 = getelementptr inbounds i8, ptr %.08.i, i64 16
  %.not.i = icmp eq ptr %16, %15
  br i1 %.not.i, label %_ZN4llvm19ReachingDefAnalysis8traverseEv.exit, label %.lr.ph.i

_ZN4llvm19ReachingDefAnalysis8traverseEv.exit:    ; preds = %.lr.ph.i, %2
  call void @llvm.lifetime.end.p0(i64 16, ptr nonnull %3)
  ret i1 false
}